; Function Attrs: mustprogress uwtable
define void @_ZN2cv4gapi9convertToERKNS_4GMatEidd(ptr dead_on_unwind noalias writable sret(%"class.cv::GMat") align 8 %0, ptr noundef nonnull readonly align 8 captures(none) dereferenceable(16) %1, i32 noundef %2, double noundef %3, double noundef %4) local_unnamed_addr #3 personality ptr @__gxx_personality_v0 {
  %6 = alloca %"class.cv::GMat", align 8
  %7 = load ptr, ptr %1, align 8, !tbaa !3
  store ptr %7, ptr %6, align 8, !tbaa !3
  %8 = getelementptr inbounds nuw i8, ptr %6, i64 8
  %9 = getelementptr inbounds nuw i8, ptr %1, i64 8
  %10 = load ptr, ptr %9, align 8, !tbaa !11
  store ptr %10, ptr %8, align 8, !tbaa !11
  %.not.i.i.i.i = icmp eq ptr %10, null
  br i1 %.not.i.i.i.i, label %_ZN2cv4GMatC2ERKS0_.exit, label %11

11:                                               ; preds = %5
  %12 = getelementptr inbounds nuw i8, ptr %10, i64 8
  %13 = load i8, ptr @__libc_single_threaded, align 1, !tbaa !12
  %.not.i.i.i.i.i = icmp eq i8 %13, 0
  br i1 %.not.i.i.i.i.i, label %17, label %14

14:                                               ; preds = %11
  %15 = load i32, ptr %12, align 4, !tbaa !13
  %16 = add nsw i32 %15, 1
  store i32 %16, ptr %12, align 4, !tbaa !13
  br label %_ZN2cv4GMatC2ERKS0_.exit

17:                                               ; preds = %11
  %18 = atomicrmw volatile add ptr %12, i32 1 acq_rel, align 4
  br label %_ZN2cv4GMatC2ERKS0_.exit

_ZN2cv4GMatC2ERKS0_.exit:                         ; preds = %5, %14, %17
  invoke void @_ZN2cv11GKernelTypeINS_4gapi4core10GConvertToESt8functionIFNS_4GMatES5_iddEEE2onES5_idd(ptr dead_on_unwind writable sret(%"class.cv::GMat") align 8 %0, ptr noundef nonnull %6, i32 noundef %2, double noundef %3, double noundef %4)
          to label %19 unwind label %42

19:                                               ; preds = %_ZN2cv4GMatC2ERKS0_.exit
  %20 = load ptr, ptr %8, align 8, !tbaa !11
  %.not.i.i.i = icmp eq ptr %20, null
  br i1 %.not.i.i.i, label %_ZN2cv4GMatD2Ev.exit, label %21

21:                                               ; preds = %19
  %22 = getelementptr inbounds nuw i8, ptr %20, i64 8
  %23 = load atomic i64, ptr %22 acquire, align 8
  %24 = icmp eq i64 %23, 4294967297
  %25 = trunc i64 %23 to i32
  br i1 %24, label %26, label %34

26:                                               ; preds = %21
  store i32 0, ptr %22, align 8, !tbaa !15
  %27 = getelementptr inbounds nuw i8, ptr %20, i64 12
  store i32 0, ptr %27, align 4, !tbaa !17
  %28 = load ptr, ptr %20, align 8, !tbaa !18
  %29 = getelementptr inbounds nuw i8, ptr %28, i64 16
  %30 = load ptr, ptr %29, align 8
  call void %30(ptr noundef nonnull align 8 dereferenceable(16) %20) #23
  %31 = load ptr, ptr %20, align 8, !tbaa !18
  %32 = getelementptr inbounds nuw i8, ptr %31, i64 24
  %33 = load ptr, ptr %32, align 8
  call void %33(ptr noundef nonnull align 8 dereferenceable(16) %20) #23
  br label %_ZN2cv4GMatD2Ev.exit

34:                                               ; preds = %21
  %35 = load i8, ptr @__libc_single_threaded, align 1, !tbaa !12
  %.not.i.i.i.i5 = icmp eq i8 %35, 0
  br i1 %.not.i.i.i.i5, label %38, label %36

36:                                               ; preds = %34
  %37 = add nsw i32 %25, -1
  store i32 %37, ptr %22, align 4, !tbaa !13
  br label %_ZN9__gnu_cxx27__exchange_and_add_dispatchEPii.exit.i.i.i.i

38:                                               ; preds = %34
  %39 = atomicrmw volatile add ptr %22, i32 -1 acq_rel, align 4
  br label %_ZN9__gnu_cxx27__exchange_and_add_dispatchEPii.exit.i.i.i.i

_ZN9__gnu_cxx27__exchange_and_add_dispatchEPii.exit.i.i.i.i: ; preds = %38, %36
  %.0.i.i.i.i.i = phi i32 [ %25, %36 ], [ %39, %38 ]
  %40 = icmp eq i32 %.0.i.i.i.i.i, 1
  br i1 %40, label %41, label %_ZN2cv4GMatD2Ev.exit, !prof !20

41:                                               ; preds = %_ZN9__gnu_cxx27__exchange_and_add_dispatchEPii.exit.i.i.i.i
  call void @_ZNSt16_Sp_counted_baseILN9__gnu_cxx12_Lock_policyE2EE24_M_release_last_use_coldEv(ptr noundef nonnull align 8 dereferenceable(16) %20) #23
  br label %_ZN2cv4GMatD2Ev.exit

_ZN2cv4GMatD2Ev.exit:                             ; preds = %19, %26, %_ZN9__gnu_cxx27__exchange_and_add_dispatchEPii.exit.i.i.i.i, %41
  ret void

42:                                               ; preds = %_ZN2cv4GMatC2ERKS0_.exit
  %43 = landingpad { ptr, i32 }
          cleanup
  call void @_ZN2cv4GMatD2Ev(ptr noundef nonnull align 8 dereferenceable(16) %6) #23
  resume { ptr, i32 } %43
}